target datalayout = "e-m:e-p270:32:32-p271:32:32-p272:64:64-i64:64-i128:128-f80:128-n8:16:32:64-S128"
target triple = "x86_64-pc-linux-gnu"

%"class.gmx::internal::SelectionData" = type <{ %"class.std::__cxx11::basic_string", %"class.std::__cxx11::basic_string", %struct.gmx_ana_pos_t, %"class.std::vector", %"class.std::vector", %"class.gmx::FlagsTemplate", ptr, i32, float, float, i8, i8, [2 x i8] }>
%"class.std::__cxx11::basic_string" = type { %"struct.std::__cxx11::basic_string<char>::_Alloc_hider", i64, %union.anon }
%"struct.std::__cxx11::basic_string<char>::_Alloc_hider" = type { ptr }
%union.anon = type { i64, [8 x i8] }
%struct.gmx_ana_pos_t = type <{ ptr, ptr, ptr, %struct.gmx_ana_indexmap_t, i32, [4 x i8] }>
%struct.gmx_ana_indexmap_t = type { i32, ptr, ptr, %struct.t_blocka, ptr, %struct.t_blocka, i8 }
%struct.t_blocka = type { i32, ptr, i32, ptr, i32, i32 }
%"class.std::vector" = type { %"struct.std::_Vector_base" }
%"struct.std::_Vector_base" = type { %"struct.std::_Vector_base<float, std::allocator<float>>::_Vector_impl" }
%"struct.std::_Vector_base<float, std::allocator<float>>::_Vector_impl" = type { %"struct.std::_Vector_base<float, std::allocator<float>>::_Vector_impl_data" }
%"struct.std::_Vector_base<float, std::allocator<float>>::_Vector_impl_data" = type { ptr, ptr, ptr }
%"class.gmx::FlagsTemplate" = type { i64 }
%"class.gmx::Selection" = type { ptr }

; Function Attrs: mustprogress nounwind uwtable
define linkonce_odr noundef nonnull align 8 dereferenceable(294) ptr @_ZN3gmx9Selection4dataEv(ptr noundef nonnull align 8 dereferenceable(8) %0) #1 comdat align 2 {
  %2 = alloca ptr, align 8
  store ptr %0, ptr %2, align 8
  %3 = load ptr, ptr %2, align 8
  %4 = getelementptr inbounds %"class.gmx::Selection", ptr %3, i32 0, i32 0
  %5 = load ptr, ptr %4, align 8
  ret ptr %5
}

; Function Attrs: mustprogress uwtable
define void @_ZN3gmx9Selection13setOriginalIdEii(ptr noundef nonnull align 8 dereferenceable(8) %0, i32 noundef %1, i32 noundef %2) #0 align 2 {
  %4 = alloca ptr, align 8
  %5 = alloca i32, align 4
  %6 = alloca i32, align 4
  store ptr %0, ptr %4, align 8
  store i32 %1, ptr %5, align 4
  store i32 %2, ptr %6, align 4
  %7 = load ptr, ptr %4, align 8
  %8 = load i32, ptr %6, align 4
  %9 = call noundef nonnull align 8 dereferenceable(294) ptr @_ZN3gmx9Selection4dataEv(ptr noundef nonnull align 8 dereferenceable(8) %7)
  %10 = getelementptr inbounds %"class.gmx::internal::SelectionData", ptr %9, i32 0, i32 2
  %11 = getelementptr inbounds %struct.gmx_ana_pos_t, ptr %10, i32 0, i32 3
  %12 = getelementptr inbounds %struct.gmx_ana_indexmap_t, ptr %11, i32 0, i32 2
  %13 = load ptr, ptr %12, align 8
  %14 = load i32, ptr %5, align 4
  %15 = sext i32 %14 to i64
  %16 = getelementptr inbounds i32, ptr %13, i64 %15
  store i32 %8, ptr %16, align 4
  %17 = load i32, ptr %6, align 4
  %18 = call noundef nonnull align 8 dereferenceable(294) ptr @_ZN3gmx9Selection4dataEv(ptr noundef nonnull align 8 dereferenceable(8) %7)
  %19 = getelementptr inbounds %"class.gmx::internal::SelectionData", ptr %18, i32 0, i32 2
  %20 = getelementptr inbounds %struct.gmx_ana_pos_t, ptr %19, i32 0, i32 3
  %21 = getelementptr inbounds %struct.gmx_ana_indexmap_t, ptr %20, i32 0, i32 4
  %22 = load ptr, ptr %21, align 8
  %23 = load i32, ptr %5, align 4
  %24 = sext i32 %23 to i64
  %25 = getelementptr inbounds i32, ptr %22, i64 %24
  store i32 %17, ptr %25, align 4
  ret void
}